target datalayout = "e-m:e-p270:32:32-p271:32:32-p272:64:64-i64:64-i128:128-f80:128-n8:16:32:64-S128"
target triple = "x86_64-pc-linux-gnu"

%struct.H5C_class_t = type { i32, ptr, i32, i32, ptr, ptr, ptr, ptr, ptr, ptr, ptr, ptr, ptr, ptr }
%struct.H5EA_dbk_page_t = type { %struct.H5C_cache_entry_t, ptr, ptr, i64, i64, i8, ptr, ptr }
%struct.H5C_cache_entry_t = type { ptr, i64, i64, ptr, i8, ptr, i8, i8, i8, i8, i32, i8, i8, i8, i8, i8, i32, ptr, i32, i32, i32, i32, i32, i8, i8, ptr, ptr, ptr, ptr, ptr, ptr, i8, i32, i8, i64, ptr, i64, i64, i32, i8, i32, i32, i8, ptr, ptr, ptr }
%struct.H5EA_hdr_t = type { %struct.H5C_cache_entry_t, %struct.H5EA_create_t, i64, %struct.H5EA_stat_t, %struct.anon.1, i64, i64, i64, ptr, i64, i8, i64, i64, i8, i64, ptr, i64, ptr, i8, ptr, ptr }
%struct.H5EA_create_t = type { ptr, i8, i8, i8, i8, i8, i8 }
%struct.H5EA_stat_t = type { %struct.anon, %struct.anon.0 }
%struct.anon = type { i64, i64, i64 }
%struct.anon.0 = type { i64, i64, i64, i64, i64, i64 }
%struct.anon.1 = type { i64, ptr }
%struct.H5EA_class_t = type { i32, ptr, i64, ptr, ptr, ptr, ptr, ptr, ptr, ptr, ptr }

@.str = private unnamed_addr constant [106 x i8] c"generated/home/dtcxzyw/WorkSpace/Projects/compilers/llvm-opt-benchmark/bench/hdf5/hdf5/src/H5EAdblkpage.c\00", align 1
@H5E_EARRAY_g = external global i64, align 8
@H5E_CANTALLOC_g = external global i64, align 8
@.str.1 = private unnamed_addr constant [62 x i8] c"memory allocation failed for extensible array data block page\00", align 1
@H5E_CANTFREE_g = external global i64, align 8
@.str.4 = private unnamed_addr constant [51 x i8] c"unable to destroy extensible array data block page\00", align 1
@__func__.H5EA__dblk_page_create = private unnamed_addr constant [23 x i8] c"H5EA__dblk_page_create\00", align 1
@H5E_CANTSET_g = external global i64, align 8
@.str.5 = private unnamed_addr constant [74 x i8] c"can't set extensible array data block page elements to class's fill value\00", align 1
@H5AC_EARRAY_DBLK_PAGE = external constant [1 x %struct.H5C_class_t], align 16
@H5E_CANTINSERT_g = external global i64, align 8
@.str.6 = private unnamed_addr constant [52 x i8] c"can't add extensible array data block page to cache\00", align 1
@.str.7 = private unnamed_addr constant [61 x i8] c"unable to add extensible array entry as child of array proxy\00", align 1
@H5E_CANTREMOVE_g = external global i64, align 8
@.str.8 = private unnamed_addr constant [61 x i8] c"unable to remove extensible array data block page from cache\00", align 1

; Function Attrs: nounwind uwtable
define i32 @H5EA__dblk_page_create(ptr noundef %0, ptr noundef %1, i64 noundef %2) #0 {
  %4 = alloca ptr, align 8
  %5 = alloca ptr, align 8
  %6 = alloca i64, align 8
  %7 = alloca ptr, align 8
  %8 = alloca i8, align 1
  %9 = alloca i32, align 4
  %10 = alloca i8, align 1
  store ptr %0, ptr %4, align 8
  store ptr %1, ptr %5, align 8
  store i64 %2, ptr %6, align 8
  store ptr null, ptr %7, align 8
  store i8 0, ptr %8, align 1
  store i32 0, ptr %9, align 4
  store i8 0, ptr %10, align 1
  %11 = load ptr, ptr %4, align 8
  %12 = load ptr, ptr %5, align 8
  %13 = call ptr @H5EA__dblk_page_alloc(ptr noundef %11, ptr noundef %12)
  store ptr %13, ptr %7, align 8
  %14 = icmp eq ptr null, %13
  br i1 %14, label %15, label %30

15:                                               ; preds = %3
  br label %16

16:                                               ; preds = %15
  br label %17

17:                                               ; preds = %16
  br label %18

18:                                               ; preds = %17
  %19 = load i64, ptr @H5E_EARRAY_g, align 8
  %20 = load i64, ptr @H5E_CANTALLOC_g, align 8
  %21 = call i32 (ptr, ptr, i32, i64, i64, ptr, ...) @H5E_printf_stack(ptr noundef @.str, ptr noundef @__func__.H5EA__dblk_page_create, i32 noundef 144, i64 noundef %19, i64 noundef %20, ptr noundef @.str.1)
  br label %22

22:                                               ; preds = %18
  store i8 1, ptr %10, align 1
  %23 = load i8, ptr %10, align 1
  %24 = trunc i8 %23 to i1
  %25 = zext i1 %24 to i8
  store i8 %25, ptr %10, align 1
  br label %26

26:                                               ; preds = %22
  br label %27

27:                                               ; preds = %26
  store i32 -1, ptr %9, align 4
  br label %137

28:                                               ; No predecessors!
  br label %29

29:                                               ; preds = %28
  br label %30

30:                                               ; preds = %29, %3
  %31 = load i64, ptr %6, align 8
  %32 = load ptr, ptr %7, align 8
  %33 = getelementptr inbounds %struct.H5EA_dbk_page_t, ptr %32, i32 0, i32 3
  store i64 %31, ptr %33, align 8
  %34 = load ptr, ptr %4, align 8
  %35 = getelementptr inbounds %struct.H5EA_hdr_t, ptr %34, i32 0, i32 16
  %36 = load i64, ptr %35, align 8
  %37 = load ptr, ptr %4, align 8
  %38 = getelementptr inbounds %struct.H5EA_hdr_t, ptr %37, i32 0, i32 1
  %39 = getelementptr inbounds %struct.H5EA_create_t, ptr %38, i32 0, i32 1
  %40 = load i8, ptr %39, align 8
  %41 = zext i8 %40 to i64
  %42 = mul i64 %36, %41
  %43 = add i64 %42, 4
  %44 = load ptr, ptr %7, align 8
  %45 = getelementptr inbounds %struct.H5EA_dbk_page_t, ptr %44, i32 0, i32 4
  store i64 %43, ptr %45, align 8
  %46 = load ptr, ptr %4, align 8
  %47 = getelementptr inbounds %struct.H5EA_hdr_t, ptr %46, i32 0, i32 1
  %48 = getelementptr inbounds %struct.H5EA_create_t, ptr %47, i32 0, i32 0
  %49 = load ptr, ptr %48, align 8
  %50 = getelementptr inbounds %struct.H5EA_class_t, ptr %49, i32 0, i32 5
  %51 = load ptr, ptr %50, align 8
  %52 = load ptr, ptr %7, align 8
  %53 = getelementptr inbounds %struct.H5EA_dbk_page_t, ptr %52, i32 0, i32 1
  %54 = load ptr, ptr %53, align 8
  %55 = load ptr, ptr %4, align 8
  %56 = getelementptr inbounds %struct.H5EA_hdr_t, ptr %55, i32 0, i32 16
  %57 = load i64, ptr %56, align 8
  %58 = call i32 %51(ptr noundef %54, i64 noundef %57)
  %59 = icmp slt i32 %58, 0
  br i1 %59, label %60, label %75

60:                                               ; preds = %30
  br label %61

61:                                               ; preds = %60
  br label %62

62:                                               ; preds = %61
  br label %63

63:                                               ; preds = %62
  %64 = load i64, ptr @H5E_EARRAY_g, align 8
  %65 = load i64, ptr @H5E_CANTSET_g, align 8
  %66 = call i32 (ptr, ptr, i32, i64, i64, ptr, ...) @H5E_printf_stack(ptr noundef @.str, ptr noundef @__func__.H5EA__dblk_page_create, i32 noundef 153, i64 noundef %64, i64 noundef %65, ptr noundef @.str.5)
  br label %67

67:                                               ; preds = %63
  store i8 1, ptr %10, align 1
  %68 = load i8, ptr %10, align 1
  %69 = trunc i8 %68 to i1
  %70 = zext i1 %69 to i8
  store i8 %70, ptr %10, align 1
  br label %71

71:                                               ; preds = %67
  br label %72

72:                                               ; preds = %71
  store i32 -1, ptr %9, align 4
  br label %137

73:                                               ; No predecessors!
  br label %74

74:                                               ; preds = %73
  br label %75

75:                                               ; preds = %74, %30
  %76 = load ptr, ptr %4, align 8
  %77 = getelementptr inbounds %struct.H5EA_hdr_t, ptr %76, i32 0, i32 8
  %78 = load ptr, ptr %77, align 8
  %79 = load ptr, ptr %7, align 8
  %80 = getelementptr inbounds %struct.H5EA_dbk_page_t, ptr %79, i32 0, i32 3
  %81 = load i64, ptr %80, align 8
  %82 = load ptr, ptr %7, align 8
  %83 = call i32 @H5AC_insert_entry(ptr noundef %78, ptr noundef @H5AC_EARRAY_DBLK_PAGE, i64 noundef %81, ptr noundef %82, i32 noundef 0)
  %84 = icmp slt i32 %83, 0
  br i1 %84, label %85, label %100

85:                                               ; preds = %75
  br label %86

86:                                               ; preds = %85
  br label %87

87:                                               ; preds = %86
  br label %88

88:                                               ; preds = %87
  %89 = load i64, ptr @H5E_EARRAY_g, align 8
  %90 = load i64, ptr @H5E_CANTINSERT_g, align 8
  %91 = call i32 (ptr, ptr, i32, i64, i64, ptr, ...) @H5E_printf_stack(ptr noundef @.str, ptr noundef @__func__.H5EA__dblk_page_create, i32 noundef 157, i64 noundef %89, i64 noundef %90, ptr noundef @.str.6)
  br label %92

92:                                               ; preds = %88
  store i8 1, ptr %10, align 1
  %93 = load i8, ptr %10, align 1
  %94 = trunc i8 %93 to i1
  %95 = zext i1 %94 to i8
  store i8 %95, ptr %10, align 1
  br label %96

96:                                               ; preds = %92
  br label %97

97:                                               ; preds = %96
  store i32 -1, ptr %9, align 4
  br label %137

98:                                               ; No predecessors!
  br label %99

99:                                               ; preds = %98
  br label %100

100:                                              ; preds = %99, %75
  store i8 1, ptr %8, align 1
  %101 = load ptr, ptr %4, align 8
  %102 = getelementptr inbounds %struct.H5EA_hdr_t, ptr %101, i32 0, i32 19
  %103 = load ptr, ptr %102, align 8
  %104 = icmp ne ptr %103, null
  br i1 %104, label %105, label %136

105:                                              ; preds = %100
  %106 = load ptr, ptr %4, align 8
  %107 = getelementptr inbounds %struct.H5EA_hdr_t, ptr %106, i32 0, i32 19
  %108 = load ptr, ptr %107, align 8
  %109 = load ptr, ptr %4, align 8
  %110 = getelementptr inbounds %struct.H5EA_hdr_t, ptr %109, i32 0, i32 8
  %111 = load ptr, ptr %110, align 8
  %112 = load ptr, ptr %7, align 8
  %113 = call i32 @H5AC_proxy_entry_add_child(ptr noundef %108, ptr noundef %111, ptr noundef %112)
  %114 = icmp slt i32 %113, 0
  br i1 %114, label %115, label %130

115:                                              ; preds = %105
  br label %116

116:                                              ; preds = %115
  br label %117

117:                                              ; preds = %116
  br label %118

118:                                              ; preds = %117
  %119 = load i64, ptr @H5E_EARRAY_g, align 8
  %120 = load i64, ptr @H5E_CANTSET_g, align 8
  %121 = call i32 (ptr, ptr, i32, i64, i64, ptr, ...) @H5E_printf_stack(ptr noundef @.str, ptr noundef @__func__.H5EA__dblk_page_create, i32 noundef 164, i64 noundef %119, i64 noundef %120, ptr noundef @.str.7)
  br label %122

122:                                              ; preds = %118
  store i8 1, ptr %10, align 1
  %123 = load i8, ptr %10, align 1
  %124 = trunc i8 %123 to i1
  %125 = zext i1 %124 to i8
  store i8 %125, ptr %10, align 1
  br label %126

126:                                              ; preds = %122
  br label %127

127:                                              ; preds = %126
  store i32 -1, ptr %9, align 4
  br label %137

128:                                              ; No predecessors!
  br label %129

129:                                              ; preds = %128
  br label %130

130:                                              ; preds = %129, %105
  %131 = load ptr, ptr %4, align 8
  %132 = getelementptr inbounds %struct.H5EA_hdr_t, ptr %131, i32 0, i32 19
  %133 = load ptr, ptr %132, align 8
  %134 = load ptr, ptr %7, align 8
  %135 = getelementptr inbounds %struct.H5EA_dbk_page_t, ptr %134, i32 0, i32 6
  store ptr %133, ptr %135, align 8
  br label %136

136:                                              ; preds = %130, %100
  br label %137

137:                                              ; preds = %136, %127, %97, %72, %27
  %138 = load i32, ptr %9, align 4
  %139 = icmp slt i32 %138, 0
  br i1 %139, label %140, label %183

140:                                              ; preds = %137
  %141 = load ptr, ptr %7, align 8
  %142 = icmp ne ptr %141, null
  br i1 %142, label %143, label %182

143:                                              ; preds = %140
  %144 = load i8, ptr %8, align 1
  %145 = trunc i8 %144 to i1
  br i1 %145, label %146, label %164

146:                                              ; preds = %143
  %147 = load ptr, ptr %7, align 8
  %148 = call i32 @H5AC_remove_entry(ptr noundef %147)
  %149 = icmp slt i32 %148, 0
  br i1 %149, label %150, label %163

150:                                              ; preds = %146
  br label %151

151:                                              ; preds = %150
  br label %152

152:                                              ; preds = %151
  br label %153

153:                                              ; preds = %152
  %154 = load i64, ptr @H5E_EARRAY_g, align 8
  %155 = load i64, ptr @H5E_CANTREMOVE_g, align 8
  %156 = call i32 (ptr, ptr, i32, i64, i64, ptr, ...) @H5E_printf_stack(ptr noundef @.str, ptr noundef @__func__.H5EA__dblk_page_create, i32 noundef 175, i64 noundef %154, i64 noundef %155, ptr noundef @.str.8)
  br label %157

157:                                              ; preds = %153
  store i8 1, ptr %10, align 1
  %158 = load i8, ptr %10, align 1
  %159 = trunc i8 %158 to i1
  %160 = zext i1 %159 to i8
  store i8 %160, ptr %10, align 1
  br label %161

161:                                              ; preds = %157
  store i32 -1, ptr %9, align 4
  br label %162

162:                                              ; preds = %161
  br label %163

163:                                              ; preds = %162, %146
  br label %164

164:                                              ; preds = %163, %143
  %165 = load ptr, ptr %7, align 8
  %166 = call i32 @H5EA__dblk_page_dest(ptr noundef %165)
  %167 = icmp slt i32 %166, 0
  br i1 %167, label %168, label %181

168:                                              ; preds = %164
  br label %169

169:                                              ; preds = %168
  br label %170

170:                                              ; preds = %169
  br label %171

171:                                              ; preds = %170
  %172 = load i64, ptr @H5E_EARRAY_g, align 8
  %173 = load i64, ptr @H5E_CANTFREE_g, align 8
  %174 = call i32 (ptr, ptr, i32, i64, i64, ptr, ...) @H5E_printf_stack(ptr noundef @.str, ptr noundef @__func__.H5EA__dblk_page_create, i32 noundef 180, i64 noundef %172, i64 noundef %173, ptr noundef @.str.4)
  br label %175

175:                                              ; preds = %171
  store i8 1, ptr %10, align 1
  %176 = load i8, ptr %10, align 1
  %177 = trunc i8 %176 to i1
  %178 = zext i1 %177 to i8
  store i8 %178, ptr %10, align 1
  br label %179

179:                                              ; preds = %175
  store i32 -1, ptr %9, align 4
  br label %180

180:                                              ; preds = %179
  br label %181

181:                                              ; preds = %180, %164
  br label %182

182:                                              ; preds = %181, %140
  br label %183

183:                                              ; preds = %182, %137
  %184 = load i32, ptr %9, align 4
  ret i32 %184
}