; Function Attrs: nounwind uwtable
define range(i32 -1, 1) i32 @H5EA__dblk_page_create(ptr noundef %0, ptr noundef %1, i64 noundef %2) local_unnamed_addr #0 {
  %4 = tail call ptr @H5EA__dblk_page_alloc(ptr noundef %0, ptr noundef %1)
  %5 = icmp eq ptr %4, null
  br i1 %5, label %6, label %10

6:                                                ; preds = %3
  %7 = load i64, ptr @H5E_EARRAY_g, align 8
  %8 = load i64, ptr @H5E_CANTALLOC_g, align 8
  %9 = tail call i32 (ptr, ptr, i32, i64, i64, ptr, ...) @H5E_printf_stack(ptr noundef nonnull @.str, ptr noundef nonnull @__func__.H5EA__dblk_page_create, i32 noundef 144, i64 noundef %7, i64 noundef %8, ptr noundef nonnull @.str.1) #2
  br label %.thread

10:                                               ; preds = %3
  %11 = getelementptr inbounds i8, ptr %4, i64 264
  store i64 %2, ptr %11, align 8
  %12 = getelementptr inbounds i8, ptr %0, i64 448
  %13 = load i64, ptr %12, align 8
  %14 = getelementptr inbounds i8, ptr %0, i64 248
  %15 = getelementptr inbounds i8, ptr %0, i64 256
  %16 = load i8, ptr %15, align 8
  %17 = zext i8 %16 to i64
  %18 = mul i64 %13, %17
  %19 = add i64 %18, 4
  %20 = getelementptr inbounds i8, ptr %4, i64 272
  store i64 %19, ptr %20, align 8
  %21 = load ptr, ptr %14, align 8
  %22 = getelementptr inbounds i8, ptr %21, i64 40
  %23 = load ptr, ptr %22, align 8
  %24 = getelementptr inbounds i8, ptr %4, i64 248
  %25 = load ptr, ptr %24, align 8
  %26 = load i64, ptr %12, align 8
  %27 = tail call i32 %23(ptr noundef %25, i64 noundef %26) #2
  %28 = icmp slt i32 %27, 0
  br i1 %28, label %29, label %33

29:                                               ; preds = %10
  %30 = load i64, ptr @H5E_EARRAY_g, align 8
  %31 = load i64, ptr @H5E_CANTSET_g, align 8
  %32 = tail call i32 (ptr, ptr, i32, i64, i64, ptr, ...) @H5E_printf_stack(ptr noundef nonnull @.str, ptr noundef nonnull @__func__.H5EA__dblk_page_create, i32 noundef 153, i64 noundef %30, i64 noundef %31, ptr noundef nonnull @.str.5) #2
  br label %63

33:                                               ; preds = %10
  %34 = getelementptr inbounds i8, ptr %0, i64 384
  %35 = load ptr, ptr %34, align 8
  %36 = load i64, ptr %11, align 8
  %37 = tail call i32 @H5AC_insert_entry(ptr noundef %35, ptr noundef nonnull @H5AC_EARRAY_DBLK_PAGE, i64 noundef %36, ptr noundef nonnull %4, i32 noundef 0) #2
  %38 = icmp slt i32 %37, 0
  br i1 %38, label %39, label %43

39:                                               ; preds = %33
  %40 = load i64, ptr @H5E_EARRAY_g, align 8
  %41 = load i64, ptr @H5E_CANTINSERT_g, align 8
  %42 = tail call i32 (ptr, ptr, i32, i64, i64, ptr, ...) @H5E_printf_stack(ptr noundef nonnull @.str, ptr noundef nonnull @__func__.H5EA__dblk_page_create, i32 noundef 157, i64 noundef %40, i64 noundef %41, ptr noundef nonnull @.str.6) #2
  br label %63

43:                                               ; preds = %33
  %44 = getelementptr inbounds i8, ptr %0, i64 472
  %45 = load ptr, ptr %44, align 8
  %.not = icmp eq ptr %45, null
  br i1 %.not, label %.thread, label %46

46:                                               ; preds = %43
  %47 = load ptr, ptr %34, align 8
  %48 = tail call i32 @H5AC_proxy_entry_add_child(ptr noundef nonnull %45, ptr noundef %47, ptr noundef nonnull %4) #2
  %49 = icmp slt i32 %48, 0
  br i1 %49, label %53, label %50

50:                                               ; preds = %46
  %51 = load ptr, ptr %44, align 8
  %52 = getelementptr inbounds i8, ptr %4, i64 288
  store ptr %51, ptr %52, align 8
  br label %.thread

53:                                               ; preds = %46
  %54 = load i64, ptr @H5E_EARRAY_g, align 8
  %55 = load i64, ptr @H5E_CANTSET_g, align 8
  %56 = tail call i32 (ptr, ptr, i32, i64, i64, ptr, ...) @H5E_printf_stack(ptr noundef nonnull @.str, ptr noundef nonnull @__func__.H5EA__dblk_page_create, i32 noundef 164, i64 noundef %54, i64 noundef %55, ptr noundef nonnull @.str.7) #2
  %57 = tail call i32 @H5AC_remove_entry(ptr noundef nonnull %4) #2
  %58 = icmp slt i32 %57, 0
  br i1 %58, label %59, label %63

59:                                               ; preds = %53
  %60 = load i64, ptr @H5E_EARRAY_g, align 8
  %61 = load i64, ptr @H5E_CANTREMOVE_g, align 8
  %62 = tail call i32 (ptr, ptr, i32, i64, i64, ptr, ...) @H5E_printf_stack(ptr noundef nonnull @.str, ptr noundef nonnull @__func__.H5EA__dblk_page_create, i32 noundef 175, i64 noundef %60, i64 noundef %61, ptr noundef nonnull @.str.8) #2
  br label %63

63:                                               ; preds = %29, %39, %53, %59
  %64 = tail call i32 @H5EA__dblk_page_dest(ptr noundef nonnull %4)
  %65 = icmp slt i32 %64, 0
  br i1 %65, label %66, label %.thread

66:                                               ; preds = %63
  %67 = load i64, ptr @H5E_EARRAY_g, align 8
  %68 = load i64, ptr @H5E_CANTFREE_g, align 8
  %69 = tail call i32 (ptr, ptr, i32, i64, i64, ptr, ...) @H5E_printf_stack(ptr noundef nonnull @.str, ptr noundef nonnull @__func__.H5EA__dblk_page_create, i32 noundef 180, i64 noundef %67, i64 noundef %68, ptr noundef nonnull @.str.4) #2
  br label %.thread

.thread:                                          ; preds = %6, %43, %50, %66, %63
  %.2 = phi i32 [ -1, %66 ], [ -1, %63 ], [ 0, %43 ], [ 0, %50 ], [ -1, %6 ]
  ret i32 %.2
}